Certificate:
    Data:
        Version: 3 (0x2)
        Serial Number: 1 (0x1)
        Signature Algorithm: sha256WithRSAEncryption
        Issuer: C=US, ST=CA, L=San Jose, O=Apigee, OU=Engineering, CN=CA
        Validity
            Not Before: Jun 24 05:05:39 2016 GMT
            Not After : Jun 19 05:05:39 2036 GMT
        Subject: C=US, ST=CA, O=Apigee, OU=Engineering, CN=testServer
        Subject Public Key Info:
            Public Key Algorithm: rsaEncryption
            RSA Public Key: (2048 bit)
                Modulus (2048 bit):
                    00:e3:b9:3d:9e:c3:5a:23:82:c8:81:42:86:ee:7f:
                    81:b3:1d:25:e3:13:3b:92:92:b4:fe:6d:f8:aa:6a:
                    58:d5:e5:27:11:9b:aa:b3:e1:31:87:33:82:ea:be:
                    00:8c:db:5b:38:39:e2:d9:e2:26:3d:17:5a:a1:9b:
                    be:56:bd:a1:79:62:40:30:d8:7c:6f:a2:5b:3f:cd:
                    91:a7:47:17:bf:f7:b4:af:69:f7:04:b2:8f:36:f8:
                    a7:1f:be:e1:42:9b:a0:30:71:e1:7f:fc:ea:5b:83:
                    b8:f1:f4:22:8e:90:19:e5:16:90:af:fe:f9:3e:ca:
                    88:43:19:0a:c4:b0:d3:04:bb:5b:5a:cb:db:63:8f:
                    bb:07:0d:a6:95:94:fd:53:c8:fa:62:99:3a:43:68:
                    bd:90:b0:2c:f8:16:60:cf:93:ee:a3:63:6d:3e:ee:
                    27:9a:1a:71:18:70:f8:0b:15:61:74:cf:e8:5e:05:
                    76:dc:a2:9d:36:ab:c5:d5:45:55:b4:81:b7:2b:9a:
                    20:de:d4:45:da:29:22:da:d3:52:ef:bd:36:f8:62:
                    3d:65:c0:a2:9a:d0:81:d8:98:09:3e:0b:d4:13:9d:
                    e6:a4:bb:81:f3:b3:9e:72:fe:05:fd:56:ae:15:36:
                    ec:f9:5e:7f:b1:50:20:8d:f3:7d:87:7b:88:aa:73:
                    95:cb
                Exponent: 65537 (0x10001)
        X509v3 extensions:
            X509v3 Basic Constraints: 
                CA:FALSE
            Netscape Cert Type: 
                SSL Server
            Netscape Comment: 
                OpenSSL Generated Server Certificate
            X509v3 Subject Key Identifier: 
                9D:FB:29:CF:E0:5B:BF:18:80:F7:42:F2:82:5B:50:13:C6:51:AD:84
            X509v3 Authority Key Identifier: 
                keyid:08:25:E2:E3:3F:06:59:58:EB:34:C3:35:36:1D:71:B0:A3:33:93:58
                DirName:/C=US/ST=CA/L=San Jose/O=Apigee/OU=Engineering/CN=CA
                serial:ED:AB:71:F9:16:80:13:52

            X509v3 Key Usage: critical
                Digital Signature, Key Encipherment
            X509v3 Extended Key Usage: 
                TLS Web Server Authentication
    Signature Algorithm: sha256WithRSAEncryption
        62:e5:16:42:25:cd:a2:ac:cc:c4:e4:bc:11:43:63:18:6e:72:
        3a:70:a6:38:88:04:e9:af:51:62:e5:8c:56:00:06:88:c4:41:
        73:b5:20:2a:a3:c0:aa:7c:e9:fb:e5:18:45:e4:7d:15:0f:91:
        65:fd:f1:a5:60:d7:ed:b8:7b:59:0c:3f:fd:84:8a:86:9d:3b:
        04:d2:b8:a4:dc:ec:40:5a:e7:5f:f2:5d:7b:32:bf:4d:74:64:
        b6:fe:52:04:35:0a:ff:67:88:ca:40:cf:f1:ae:86:56:92:a1:
        95:27:2e:89:e6:4f:3b:bc:46:73:32:44:7e:17:b5:73:c9:43:
        26:43:a7:96:22:0a:9d:49:06:b5:c6:c5:89:56:f9:39:25:de:
        d7:a7:3d:47:52:c1:d2:9a:a8:da:fd:47:ec:2a:a2:d9:40:b3:
        be:c1:7f:3e:19:16:53:06:40:3e:2d:e8:38:99:20:ce:9f:db:
        34:a7:c2:1c:81:4e:fe:ab:96:4e:c0:d7:67:18:90:f2:8b:b8:
        60:b8:97:18:34:2d:7c:33:25:3d:4e:8f:93:7a:aa:a8:f2:90:
        38:f8:82:f0:4e:d4:92:26:70:51:75:a1:3d:32:bb:6b:34:13:
        38:07:01:10:f0:92:ca:01:41:da:0e:dd:c6:29:cc:e5:e3:54:
        4e:81:7a:24:8f:2d:57:8d:e8:e3:df:6f:b3:8c:f3:d0:56:b6:
        d7:ca:98:92:c7:4e:0d:c4:58:56:1c:2e:b4:ec:b6:82:d5:21:
        05:eb:8e:06:ac:f3:59:9e:d5:36:42:2e:b9:d3:e0:f3:9d:2e:
        4c:af:63:fb:e5:c8:a9:91:27:a9:c8:8a:ba:e3:c6:78:3f:64:
        f7:37:36:27:41:4a:74:40:a7:67:92:ab:1f:f0:3d:c6:af:03:
        7d:d3:a3:c9:ff:0e:5a:52:87:0a:99:6c:4a:44:73:31:2f:8c:
        47:82:6e:e9:8f:f0:83:b2:1a:b5:a2:83:91:82:ad:e0:13:18:
        94:e9:60:67:3c:8a:cd:8b:6b:ba:47:eb:c1:c8:ef:1b:90:f7:
        c1:df:00:d1:ae:fe:85:72:59:2e:7b:85:6c:84:82:60:fa:a2:
        6c:81:02:1c:e8:bb:9c:2b:61:b9:41:54:21:bd:bc:c5:3e:a8:
        a5:e6:78:53:fc:c9:4c:9e:90:07:e9:ab:a1:02:00:b7:46:e3:
        aa:37:e8:51:92:09:be:5a:7f:25:fa:44:ee:ab:72:44:0d:a6:
        91:e6:16:41:8a:9a:ea:b5:48:6d:2f:2a:e2:7d:3c:f1:d8:95:
        f8:6c:6a:eb:ca:5c:11:41:ce:0a:29:58:be:af:80:ff:de:36:
        f2:45:4c:7e:c8:89:f3:12
-----BEGIN CERTIFICATE-----
MIIFZTCCA02gAwIBAgIBATANBgkqhkiG9w0BAQsFADBhMQswCQYDVQQGEwJVUzEL
MAkGA1UECAwCQ0ExETAPBgNVBAcMCFNhbiBKb3NlMQ8wDQYDVQQKDAZBcGlnZWUx
FDASBgNVBAsMC0VuZ2luZWVyaW5nMQswCQYDVQQDDAJDQTAeFw0xNjA2MjQwNTA1
MzlaFw0zNjA2MTkwNTA1MzlaMFYxCzAJBgNVBAYTAlVTMQswCQYDVQQIDAJDQTEP
MA0GA1UECgwGQXBpZ2VlMRQwEgYDVQQLDAtFbmdpbmVlcmluZzETMBEGA1UEAwwK
dGVzdFNlcnZlcjCCASIwDQYJKoZIhvcNAQEBBQADggEPADCCAQoCggEBAOO5PZ7D
WiOCyIFChu5/gbMdJeMTO5KStP5t+KpqWNXlJxGbqrPhMYczguq+AIzbWzg54tni
Jj0XWqGbvla9oXliQDDYfG+iWz/NkadHF7/3tK9p9wSyjzb4px++4UKboDBx4X/8
6luDuPH0Io6QGeUWkK/++T7KiEMZCsSw0wS7W1rL22OPuwcNppWU/VPI+mKZOkNo
vZCwLPgWYM+T7qNjbT7uJ5oacRhw+AsVYXTP6F4FdtyinTarxdVFVbSBtyuaIN7U
RdopItrTUu+9NvhiPWXAoprQgdiYCT4L1BOd5qS7gfOznnL+Bf1WrhU27Plef7FQ
II3zfYd7iKpzlcsCAwEAAaOCATEwggEtMAkGA1UdEwQCMAAwEQYJYIZIAYb4QgEB
BAQDAgZAMDMGCWCGSAGG+EIBDQQmFiRPcGVuU1NMIEdlbmVyYXRlZCBTZXJ2ZXIg
Q2VydGlmaWNhdGUwHQYDVR0OBBYEFJ37Kc/gW78YgPdC8oJbUBPGUa2EMIGTBgNV
HSMEgYswgYiAFAgl4uM/BllY6zTDNTYdcbCjM5NYoWWkYzBhMQswCQYDVQQGEwJV
UzELMAkGA1UECAwCQ0ExETAPBgNVBAcMCFNhbiBKb3NlMQ8wDQYDVQQKDAZBcGln
ZWUxFDASBgNVBAsMC0VuZ2luZWVyaW5nMQswCQYDVQQDDAJDQYIJAO2rcfkWgBNS
MA4GA1UdDwEB/wQEAwIFoDATBgNVHSUEDDAKBggrBgEFBQcDATANBgkqhkiG9w0B
AQsFAAOCAgEAYuUWQiXNoqzMxOS8EUNjGG5yOnCmOIgE6a9RYuWMVgAGiMRBc7Ug
KqPAqnzp++UYReR9FQ+RZf3xpWDX7bh7WQw//YSKhp07BNK4pNzsQFrnX/JdezK/
TXRktv5SBDUK/2eIykDP8a6GVpKhlScuieZPO7xGczJEfhe1c8lDJkOnliIKnUkG
tcbFiVb5OSXe16c9R1LB0pqo2v1H7Cqi2UCzvsF/PhkWUwZAPi3oOJkgzp/bNKfC
HIFO/quWTsDXZxiQ8ou4YLiXGDQtfDMlPU6Pk3qqqPKQOPiC8E7UkiZwUXWhPTK7
azQTOAcBEPCSygFB2g7dxinM5eNUToF6JI8tV43o499vs4zz0Fa218qYksdODcRY
VhwutOy2gtUhBeuOBqzzWZ7VNkIuudPg850uTK9j++XIqZEnqciKuuPGeD9k9zc2
J0FKdECnZ5KrH/A9xq8DfdOjyf8OWlKHCplsSkRzMS+MR4Ju6Y/wg7IataKDkYKt
4BMYlOlgZzyKzYtrukfrwcjvG5D3wd8A0a7+hXJZLnuFbISCYPqibIECHOi7nCth
uUFUIb28xT6opeZ4U/zJTJ6QB+mroQIAt0bjqjfoUZIJvlp/JfpE7qtyRA2mkeYW
QYqa6rVIbS8q4n088diV+Gxq68pcEUHOCilYvq+A/9428kVMfsiJ8xI=
-----END CERTIFICATE-----
