Certificate:
    Data:
        Version: 3 (0x2)
        Serial Number: 3 (0x3)
        Signature Algorithm: sha256WithRSAEncryption
        Issuer: C=US, ST=CA, L=San Jose, O=Apigee, OU=Engineering, CN=CA
        Validity
            Not Before: Jun 24 06:14:23 2016 GMT
            Not After : Jun 24 06:14:23 2017 GMT
        Subject: C=US, ST=CA, O=Apigee, OU=Engineering, CN=localhost
        Subject Public Key Info:
            Public Key Algorithm: rsaEncryption
            RSA Public Key: (2048 bit)
                Modulus (2048 bit):
                    00:e3:b9:3d:9e:c3:5a:23:82:c8:81:42:86:ee:7f:
                    81:b3:1d:25:e3:13:3b:92:92:b4:fe:6d:f8:aa:6a:
                    58:d5:e5:27:11:9b:aa:b3:e1:31:87:33:82:ea:be:
                    00:8c:db:5b:38:39:e2:d9:e2:26:3d:17:5a:a1:9b:
                    be:56:bd:a1:79:62:40:30:d8:7c:6f:a2:5b:3f:cd:
                    91:a7:47:17:bf:f7:b4:af:69:f7:04:b2:8f:36:f8:
                    a7:1f:be:e1:42:9b:a0:30:71:e1:7f:fc:ea:5b:83:
                    b8:f1:f4:22:8e:90:19:e5:16:90:af:fe:f9:3e:ca:
                    88:43:19:0a:c4:b0:d3:04:bb:5b:5a:cb:db:63:8f:
                    bb:07:0d:a6:95:94:fd:53:c8:fa:62:99:3a:43:68:
                    bd:90:b0:2c:f8:16:60:cf:93:ee:a3:63:6d:3e:ee:
                    27:9a:1a:71:18:70:f8:0b:15:61:74:cf:e8:5e:05:
                    76:dc:a2:9d:36:ab:c5:d5:45:55:b4:81:b7:2b:9a:
                    20:de:d4:45:da:29:22:da:d3:52:ef:bd:36:f8:62:
                    3d:65:c0:a2:9a:d0:81:d8:98:09:3e:0b:d4:13:9d:
                    e6:a4:bb:81:f3:b3:9e:72:fe:05:fd:56:ae:15:36:
                    ec:f9:5e:7f:b1:50:20:8d:f3:7d:87:7b:88:aa:73:
                    95:cb
                Exponent: 65537 (0x10001)
        X509v3 extensions:
            X509v3 Basic Constraints: 
                CA:FALSE
            Netscape Cert Type: 
                SSL Server
            Netscape Comment: 
                OpenSSL Generated Server Certificate
            X509v3 Subject Key Identifier: 
                9D:FB:29:CF:E0:5B:BF:18:80:F7:42:F2:82:5B:50:13:C6:51:AD:84
            X509v3 Authority Key Identifier: 
                keyid:08:25:E2:E3:3F:06:59:58:EB:34:C3:35:36:1D:71:B0:A3:33:93:58
                DirName:/C=US/ST=CA/L=San Jose/O=Apigee/OU=Engineering/CN=CA
                serial:ED:AB:71:F9:16:80:13:52

            X509v3 Key Usage: critical
                Digital Signature, Key Encipherment
            X509v3 Extended Key Usage: 
                TLS Web Server Authentication
            X509v3 Subject Alternative Name: 
                IP Address:127.0.0.1
    Signature Algorithm: sha256WithRSAEncryption
        19:8a:0e:cc:0c:17:ad:73:95:76:4c:74:48:59:ac:85:a1:48:
        c1:51:79:1f:c0:cb:64:f8:5a:24:13:72:a2:a5:c0:5f:40:cf:
        64:06:14:1d:80:dd:4c:92:fc:ba:53:bc:c8:77:db:d3:19:2d:
        58:7e:27:ec:f8:81:27:d2:af:c2:04:b3:96:0b:62:a3:8d:60:
        a6:e7:b4:c2:eb:9f:e3:22:b7:e9:95:10:e3:60:34:d0:95:65:
        b4:fe:0e:a2:ce:aa:77:50:a8:1b:fc:ca:2d:e0:a3:ca:fa:42:
        4c:8a:85:4b:52:a8:55:f7:9a:76:46:77:62:a6:52:8d:6d:5b:
        71:4a:fd:f6:ba:31:7f:d7:a4:0d:1a:b3:38:a3:ff:01:a8:a2:
        3a:4e:ee:7d:89:b5:d8:24:d9:9c:5e:19:15:98:84:5d:ac:3a:
        ab:7c:05:00:b3:60:62:bb:ec:86:c2:b1:4c:ee:a7:c1:7c:47:
        e5:11:fc:13:d4:bc:40:fe:72:5b:0c:cf:5a:d3:59:e7:d2:1b:
        36:05:67:11:3a:2d:ef:ca:cb:56:ea:0a:dc:63:8f:72:56:dd:
        0d:5d:87:c0:ae:09:3c:e7:69:50:a2:51:85:ca:da:e0:77:40:
        a4:ae:5b:91:d5:ba:c4:d0:77:43:da:01:41:c1:c2:58:a7:cd:
        c1:1d:02:80:5f:a3:39:87:59:6f:65:6c:04:be:9b:95:03:31:
        97:55:db:aa:41:d8:06:d7:1c:4f:75:5e:fd:bb:ba:70:fd:d7:
        89:2a:d2:33:45:7b:b1:f0:27:46:8b:b6:c0:43:c4:91:3f:f7:
        44:bc:32:46:ba:e6:d9:e0:d3:80:7a:15:d9:49:c8:bb:e4:c5:
        aa:48:b1:ae:5c:1d:59:7f:26:59:45:47:94:d9:9b:e5:e3:6b:
        3e:a7:04:b4:c6:b6:79:05:cc:75:b7:e6:65:4d:3e:22:e5:ac:
        c9:55:46:1b:4e:53:2d:77:d6:e7:ca:69:a5:6b:0f:c8:49:53:
        ba:85:ab:2f:69:9a:bd:76:54:b9:67:2b:f5:16:c1:5d:b7:ef:
        35:8b:d0:83:0f:1e:03:92:c4:96:8d:52:ed:fe:41:4a:c1:50:
        42:8f:07:9c:da:88:89:45:ea:5b:d9:eb:b9:40:d0:e4:77:77:
        06:b8:1f:22:02:13:74:f3:c6:49:1d:96:fb:e5:30:37:a0:e0:
        fe:ad:ee:86:24:54:a0:56:8a:1c:11:3b:66:ba:b6:02:fb:1d:
        2d:c4:ae:d7:65:78:f9:09:77:ba:09:95:c5:8a:0e:3b:ad:ea:
        ca:7a:52:7c:40:b4:68:e7:e3:a1:7e:41:7b:c3:8d:ad:6e:a9:
        fe:bb:df:fd:1f:1e:ae:f5
-----BEGIN CERTIFICATE-----
MIIFdTCCA12gAwIBAgIBAzANBgkqhkiG9w0BAQsFADBhMQswCQYDVQQGEwJVUzEL
MAkGA1UECAwCQ0ExETAPBgNVBAcMCFNhbiBKb3NlMQ8wDQYDVQQKDAZBcGlnZWUx
FDASBgNVBAsMC0VuZ2luZWVyaW5nMQswCQYDVQQDDAJDQTAeFw0xNjA2MjQwNjE0
MjNaFw0xNzA2MjQwNjE0MjNaMFUxCzAJBgNVBAYTAlVTMQswCQYDVQQIDAJDQTEP
MA0GA1UECgwGQXBpZ2VlMRQwEgYDVQQLDAtFbmdpbmVlcmluZzESMBAGA1UEAwwJ
bG9jYWxob3N0MIIBIjANBgkqhkiG9w0BAQEFAAOCAQ8AMIIBCgKCAQEA47k9nsNa
I4LIgUKG7n+Bsx0l4xM7kpK0/m34qmpY1eUnEZuqs+ExhzOC6r4AjNtbODni2eIm
PRdaoZu+Vr2heWJAMNh8b6JbP82Rp0cXv/e0r2n3BLKPNvinH77hQpugMHHhf/zq
W4O48fQijpAZ5RaQr/75PsqIQxkKxLDTBLtbWsvbY4+7Bw2mlZT9U8j6Ypk6Q2i9
kLAs+BZgz5Puo2NtPu4nmhpxGHD4CxVhdM/oXgV23KKdNqvF1UVVtIG3K5og3tRF
2iki2tNS7702+GI9ZcCimtCB2JgJPgvUE53mpLuB87Oecv4F/VauFTbs+V5/sVAg
jfN9h3uIqnOVywIDAQABo4IBQjCCAT4wCQYDVR0TBAIwADARBglghkgBhvhCAQEE
BAMCBkAwMwYJYIZIAYb4QgENBCYWJE9wZW5TU0wgR2VuZXJhdGVkIFNlcnZlciBD
ZXJ0aWZpY2F0ZTAdBgNVHQ4EFgQUnfspz+BbvxiA90LygltQE8ZRrYQwgZMGA1Ud
IwSBizCBiIAUCCXi4z8GWVjrNMM1Nh1xsKMzk1ihZaRjMGExCzAJBgNVBAYTAlVT
MQswCQYDVQQIDAJDQTERMA8GA1UEBwwIU2FuIEpvc2UxDzANBgNVBAoMBkFwaWdl
ZTEUMBIGA1UECwwLRW5naW5lZXJpbmcxCzAJBgNVBAMMAkNBggkA7atx+RaAE1Iw
DgYDVR0PAQH/BAQDAgWgMBMGA1UdJQQMMAoGCCsGAQUFBwMBMA8GA1UdEQQIMAaH
BH8AAAEwDQYJKoZIhvcNAQELBQADggIBABmKDswMF61zlXZMdEhZrIWhSMFReR/A
y2T4WiQTcqKlwF9Az2QGFB2A3UyS/LpTvMh329MZLVh+J+z4gSfSr8IEs5YLYqON
YKbntMLrn+Mit+mVEONgNNCVZbT+DqLOqndQqBv8yi3go8r6QkyKhUtSqFX3mnZG
d2KmUo1tW3FK/fa6MX/XpA0aszij/wGoojpO7n2Jtdgk2ZxeGRWYhF2sOqt8BQCz
YGK77IbCsUzup8F8R+UR/BPUvED+clsMz1rTWefSGzYFZxE6Le/Ky1bqCtxjj3JW
3Q1dh8CuCTznaVCiUYXK2uB3QKSuW5HVusTQd0PaAUHBwlinzcEdAoBfozmHWW9l
bAS+m5UDMZdV26pB2AbXHE91Xv27unD914kq0jNFe7HwJ0aLtsBDxJE/90S8Mka6
5tng04B6FdlJyLvkxapIsa5cHVl/JllFR5TZm+Xjaz6nBLTGtnkFzHW35mVNPiLl
rMlVRhtOUy131ufKaaVrD8hJU7qFqy9pmr12VLlnK/UWwV237zWL0IMPHgOSxJaN
Uu3+QUrBUEKPB5zaiIlF6lvZ67lA0OR3dwa4HyICE3TzxkkdlvvlMDeg4P6t7oYk
VKBWihwRO2a6tgL7HS3ErtdlePkJd7oJlcWKDjut6sp6UnxAtGjn46F+QXvDja1u
qf673/0fHq71
-----END CERTIFICATE-----
