Certificate:
    Data:
        Version: 3 (0x2)
        Serial Number: 4 (0x4)
        Signature Algorithm: sha256WithRSAEncryption
        Issuer: C=US, ST=CA, L=San Jose, O=Apigee, OU=Engineering, CN=CA
        Validity
            Not Before: Jun 24 06:28:03 2016 GMT
            Not After : Jun 24 06:28:03 2017 GMT
        Subject: C=US, ST=CA, O=Apigee, OU=Engineering, CN=testClient
        Subject Public Key Info:
            Public Key Algorithm: rsaEncryption
            RSA Public Key: (2048 bit)
                Modulus (2048 bit):
                    00:e3:b9:3d:9e:c3:5a:23:82:c8:81:42:86:ee:7f:
                    81:b3:1d:25:e3:13:3b:92:92:b4:fe:6d:f8:aa:6a:
                    58:d5:e5:27:11:9b:aa:b3:e1:31:87:33:82:ea:be:
                    00:8c:db:5b:38:39:e2:d9:e2:26:3d:17:5a:a1:9b:
                    be:56:bd:a1:79:62:40:30:d8:7c:6f:a2:5b:3f:cd:
                    91:a7:47:17:bf:f7:b4:af:69:f7:04:b2:8f:36:f8:
                    a7:1f:be:e1:42:9b:a0:30:71:e1:7f:fc:ea:5b:83:
                    b8:f1:f4:22:8e:90:19:e5:16:90:af:fe:f9:3e:ca:
                    88:43:19:0a:c4:b0:d3:04:bb:5b:5a:cb:db:63:8f:
                    bb:07:0d:a6:95:94:fd:53:c8:fa:62:99:3a:43:68:
                    bd:90:b0:2c:f8:16:60:cf:93:ee:a3:63:6d:3e:ee:
                    27:9a:1a:71:18:70:f8:0b:15:61:74:cf:e8:5e:05:
                    76:dc:a2:9d:36:ab:c5:d5:45:55:b4:81:b7:2b:9a:
                    20:de:d4:45:da:29:22:da:d3:52:ef:bd:36:f8:62:
                    3d:65:c0:a2:9a:d0:81:d8:98:09:3e:0b:d4:13:9d:
                    e6:a4:bb:81:f3:b3:9e:72:fe:05:fd:56:ae:15:36:
                    ec:f9:5e:7f:b1:50:20:8d:f3:7d:87:7b:88:aa:73:
                    95:cb
                Exponent: 65537 (0x10001)
        X509v3 extensions:
            X509v3 Basic Constraints: 
                CA:FALSE
            Netscape Cert Type: 
                SSL Client, S/MIME
            X509v3 Key Usage: critical
                Digital Signature, Non Repudiation, Key Encipherment
            Netscape Comment: 
                OpenSSL Generated Certificate
            X509v3 Subject Key Identifier: 
                9D:FB:29:CF:E0:5B:BF:18:80:F7:42:F2:82:5B:50:13:C6:51:AD:84
            X509v3 Authority Key Identifier: 
                keyid:08:25:E2:E3:3F:06:59:58:EB:34:C3:35:36:1D:71:B0:A3:33:93:58

            X509v3 Extended Key Usage: 
                TLS Web Client Authentication, Time Stamping
    Signature Algorithm: sha256WithRSAEncryption
        7e:83:57:4e:ff:43:29:0b:4a:57:ab:5e:55:df:ce:31:5b:4a:
        e3:4d:b2:0b:7c:d3:e2:cb:1e:8a:49:80:39:b5:63:24:a5:8e:
        a4:03:0f:1d:67:b3:20:05:e7:53:4c:19:1b:b1:0b:dc:e4:d5:
        3e:5a:94:21:0b:35:ef:89:2a:46:fa:e7:93:ad:0c:e2:b6:95:
        3a:e7:9b:7a:a4:82:ea:6d:51:db:9a:75:ca:57:f0:d8:ca:47:
        2c:5a:f1:36:ef:ed:ad:c9:ed:b4:60:9b:4b:68:8d:39:b2:f9:
        f7:37:f2:1e:a5:c3:75:5b:a8:17:91:56:e2:97:ed:4b:9d:d4:
        5a:cb:bc:87:cd:2c:33:8d:d3:b0:19:4f:c9:8f:3f:ce:af:ec:
        fa:19:4c:be:51:42:f6:52:45:56:a1:a2:74:d7:2d:15:34:0d:
        84:c6:0c:01:0f:cf:a9:15:08:2b:0c:51:78:35:32:24:a4:70:
        54:14:9d:83:32:06:de:14:1f:58:59:bd:96:87:38:50:55:93:
        dd:7d:ef:57:5b:4c:b0:0a:26:44:bd:17:78:29:b0:cc:e2:42:
        d8:f9:db:eb:6b:5e:24:65:5a:9d:d8:9e:22:23:cb:14:4e:c3:
        2e:dd:de:4e:f9:78:43:78:c7:f6:4c:35:b2:ba:bf:bd:34:3e:
        e5:ca:ff:e8:64:d1:c5:9c:1a:87:3f:40:bc:ce:37:0a:df:d2:
        b2:ca:26:20:f9:50:02:1f:68:ec:0b:21:ac:d9:cc:b1:35:de:
        1b:ce:d2:f9:e3:d0:1e:86:41:0c:84:bc:f2:46:cc:b6:86:4b:
        62:c2:b1:8c:ab:9b:05:8b:e0:6d:c2:12:66:87:14:b1:0e:0a:
        94:75:d5:4b:9b:2d:49:6c:5b:92:18:dd:d1:57:5f:44:73:aa:
        6a:05:cc:41:ab:89:2a:84:06:55:38:c8:08:8b:c7:b9:82:76:
        09:53:62:29:01:d0:3a:34:03:f3:ae:5c:50:81:b6:cb:11:bd:
        0b:eb:3e:fe:15:01:44:7b:f2:8c:aa:4c:fe:10:d8:39:58:13:
        74:23:78:83:b7:4d:05:98:7a:ab:91:36:b3:a2:45:07:da:c6:
        c3:22:44:b3:de:30:69:b7:5d:de:63:a4:cd:81:9f:37:18:d2:
        60:99:83:f6:b6:c8:80:5f:09:e5:2d:e5:54:5d:f6:26:5d:6d:
        9a:2e:aa:22:20:e1:41:b8:19:18:4d:59:8b:a9:98:87:dd:2b:
        af:cb:c2:7c:97:d8:75:dc:bd:c4:39:cb:6c:66:5f:fa:6e:b0:
        00:02:1b:b3:4c:57:e6:39:ae:57:e9:e7:d6:36:a7:9a:8d:38:
        e9:cd:ab:02:50:01:33:5e
-----BEGIN CERTIFICATE-----
MIIE8TCCAtmgAwIBAgIBBDANBgkqhkiG9w0BAQsFADBhMQswCQYDVQQGEwJVUzEL
MAkGA1UECAwCQ0ExETAPBgNVBAcMCFNhbiBKb3NlMQ8wDQYDVQQKDAZBcGlnZWUx
FDASBgNVBAsMC0VuZ2luZWVyaW5nMQswCQYDVQQDDAJDQTAeFw0xNjA2MjQwNjI4
MDNaFw0xNzA2MjQwNjI4MDNaMFYxCzAJBgNVBAYTAlVTMQswCQYDVQQIDAJDQTEP
MA0GA1UECgwGQXBpZ2VlMRQwEgYDVQQLDAtFbmdpbmVlcmluZzETMBEGA1UEAwwK
dGVzdENsaWVudDCCASIwDQYJKoZIhvcNAQEBBQADggEPADCCAQoCggEBAOO5PZ7D
WiOCyIFChu5/gbMdJeMTO5KStP5t+KpqWNXlJxGbqrPhMYczguq+AIzbWzg54tni
Jj0XWqGbvla9oXliQDDYfG+iWz/NkadHF7/3tK9p9wSyjzb4px++4UKboDBx4X/8
6luDuPH0Io6QGeUWkK/++T7KiEMZCsSw0wS7W1rL22OPuwcNppWU/VPI+mKZOkNo
vZCwLPgWYM+T7qNjbT7uJ5oacRhw+AsVYXTP6F4FdtyinTarxdVFVbSBtyuaIN7U
RdopItrTUu+9NvhiPWXAoprQgdiYCT4L1BOd5qS7gfOznnL+Bf1WrhU27Plef7FQ
II3zfYd7iKpzlcsCAwEAAaOBvjCBuzAJBgNVHRMEAjAAMBEGCWCGSAGG+EIBAQQE
AwIFoDAOBgNVHQ8BAf8EBAMCBeAwLAYJYIZIAYb4QgENBB8WHU9wZW5TU0wgR2Vu
ZXJhdGVkIENlcnRpZmljYXRlMB0GA1UdDgQWBBSd+ynP4Fu/GID3QvKCW1ATxlGt
hDAfBgNVHSMEGDAWgBQIJeLjPwZZWOs0wzU2HXGwozOTWDAdBgNVHSUEFjAUBggr
BgEFBQcDAgYIKwYBBQUHAwgwDQYJKoZIhvcNAQELBQADggIBAH6DV07/QykLSler
XlXfzjFbSuNNsgt80+LLHopJgDm1YySljqQDDx1nsyAF51NMGRuxC9zk1T5alCEL
Ne+JKkb655OtDOK2lTrnm3qkguptUduadcpX8NjKRyxa8Tbv7a3J7bRgm0tojTmy
+fc38h6lw3VbqBeRVuKX7Uud1FrLvIfNLDON07AZT8mPP86v7PoZTL5RQvZSRVah
onTXLRU0DYTGDAEPz6kVCCsMUXg1MiSkcFQUnYMyBt4UH1hZvZaHOFBVk91971db
TLAKJkS9F3gpsMziQtj52+trXiRlWp3YniIjyxROwy7d3k75eEN4x/ZMNbK6v700
PuXK/+hk0cWcGoc/QLzONwrf0rLKJiD5UAIfaOwLIazZzLE13hvO0vnj0B6GQQyE
vPJGzLaGS2LCsYyrmwWL4G3CEmaHFLEOCpR11UubLUlsW5IY3dFXX0RzqmoFzEGr
iSqEBlU4yAiLx7mCdglTYikB0Do0A/OuXFCBtssRvQvrPv4VAUR78oyqTP4Q2DlY
E3QjeIO3TQWYequRNrOiRQfaxsMiRLPeMGm3Xd5jpM2BnzcY0mCZg/a2yIBfCeUt
5VRd9iZdbZouqiIg4UG4GRhNWYupmIfdK6/LwnyX2HXcvcQ5y2xmX/pusAACG7NM
V+Y5rlfp59Y2p5qNOOnNqwJQATNe
-----END CERTIFICATE-----
