Certificate:
    Data:
        Version: 3 (0x2)
        Serial Number: 5 (0x5)
        Signature Algorithm: sha256WithRSAEncryption
        Issuer: C=US, ST=CA, L=San Jose, O=Apigee, OU=Engineering, CN=CA
        Validity
            Not Before: Jul  8 17:04:04 2016 GMT
            Not After : Apr  3 17:04:04 2019 GMT
        Subject: C=US, ST=CA, O=Apigee, OU=Engineering, CN=cluster
        Subject Public Key Info:
            Public Key Algorithm: rsaEncryption
            RSA Public Key: (2048 bit)
                Modulus (2048 bit):
                    00:b4:0a:a0:65:71:71:2a:3f:db:fa:65:98:54:ab:
                    7f:6b:60:71:a2:c6:b3:38:0b:1a:cd:7b:61:ab:a2:
                    db:3c:87:b6:c9:bf:e7:67:80:ea:19:e1:60:b7:54:
                    7a:7a:02:d0:83:03:48:d1:e3:f7:68:d3:a0:38:8f:
                    d6:ee:02:dd:01:a9:e4:fe:61:aa:24:ea:76:f1:67:
                    65:d1:3c:ee:89:42:8b:ff:a4:e0:9c:5a:55:0a:64:
                    ef:72:90:6a:91:14:b5:3f:4c:9e:24:d4:7f:b5:8a:
                    f6:e9:75:d3:37:2f:95:7f:7a:49:38:f8:0a:62:bb:
                    02:dd:66:d2:00:f2:cd:aa:1e:23:aa:df:42:bb:4d:
                    fb:2f:3b:54:d1:32:d8:1e:8f:01:1b:14:60:8f:b1:
                    6d:57:1d:13:01:fb:b2:c8:50:57:d7:ae:8b:4a:89:
                    97:e8:e9:6b:75:a1:ac:2a:ed:f3:df:7a:34:9c:96:
                    6b:7f:34:9e:3a:9d:00:cc:54:75:89:63:52:51:4c:
                    df:8f:c5:5f:91:9d:8d:93:c2:c5:32:ff:d7:ed:c4:
                    d4:96:a3:2b:24:0d:46:84:41:ce:f5:75:6b:08:3d:
                    c7:fb:c5:ec:40:4c:78:5a:05:4d:dc:c9:26:8f:c1:
                    9e:55:00:0b:20:7d:7b:c9:b2:6b:d5:57:b8:fc:3d:
                    86:7b
                Exponent: 65537 (0x10001)
        X509v3 extensions:
            X509v3 Basic Constraints: 
                CA:FALSE
            Netscape Cert Type: 
                SSL Client, S/MIME
            X509v3 Key Usage: critical
                Digital Signature, Non Repudiation, Key Encipherment
            Netscape Comment: 
                OpenSSL Generated Certificate
            X509v3 Subject Key Identifier: 
                90:5F:15:DC:9C:1F:74:2B:39:A1:8D:62:20:04:D4:79:2E:3A:B7:85
            X509v3 Authority Key Identifier: 
                keyid:08:25:E2:E3:3F:06:59:58:EB:34:C3:35:36:1D:71:B0:A3:33:93:58

            X509v3 Extended Key Usage: 
                TLS Web Client Authentication, Time Stamping
    Signature Algorithm: sha256WithRSAEncryption
        b6:8f:4b:f3:e7:c0:69:60:29:c6:4a:f0:90:c9:2f:79:4b:5b:
        e5:7e:a1:46:75:c1:75:4b:e3:e0:5f:91:12:73:44:ca:28:97:
        95:4e:64:37:d5:fc:29:78:71:1f:ca:fa:e7:5b:34:b1:92:f6:
        c0:3e:0a:65:23:a6:a4:e9:80:70:58:3c:75:31:aa:6d:bc:0a:
        2f:e2:4a:07:0f:0d:c6:db:46:73:99:c8:7a:42:84:03:fa:00:
        5b:a0:32:fc:58:2b:36:2f:bb:b6:90:40:d4:7f:5e:6b:1b:91:
        c2:47:bd:f9:60:a3:16:65:b9:56:90:ff:c2:e3:fb:f1:2d:08:
        3f:79:5f:76:76:d1:2e:86:e8:ac:49:c4:b5:1b:4b:c2:53:4f:
        0f:8d:68:34:15:af:34:03:48:6f:51:8f:d0:bb:c1:1e:de:6f:
        87:69:70:d0:d6:4c:93:3e:63:82:73:ba:01:80:d9:81:59:32:
        fd:c9:a6:89:4e:7b:a8:92:72:f6:98:67:28:4c:0c:04:04:ae:
        c6:8b:e2:f9:3c:44:b3:5a:4a:43:b2:43:c7:81:7b:6f:a0:4e:
        17:04:70:ea:de:df:f3:fc:2c:7d:1c:eb:22:cc:24:e1:cd:c2:
        32:3d:a8:eb:6c:68:91:f1:ac:fe:52:c3:a1:4d:60:df:42:71:
        dc:00:64:52:52:e8:6b:65:b4:03:46:25:ae:cc:51:8a:bb:8b:
        a9:09:a9:92:ca:e0:b0:16:34:2f:b7:f3:df:cd:47:3f:7d:3b:
        1f:70:59:a3:4c:f4:80:99:3b:ca:16:e8:46:15:f8:e7:55:23:
        ca:5b:75:1a:31:e2:3d:de:95:d2:ba:62:67:f6:eb:2d:a9:55:
        d8:3b:5b:dd:a3:e5:46:3e:c2:dd:28:a0:f8:11:f1:4d:fb:66:
        81:52:eb:77:11:51:11:79:12:67:b5:69:54:3b:a7:bf:ef:3c:
        b6:0f:82:e5:3d:58:80:b3:1e:3b:14:cf:79:87:22:3a:f4:0c:
        04:b4:56:87:61:90:18:5d:0e:00:dc:a5:0d:a3:69:5a:3a:79:
        a9:71:5c:89:4c:30:5f:1a:03:77:55:96:cf:81:c5:29:7e:e7:
        9a:10:a4:b0:ff:dd:b5:ce:79:ac:93:a8:86:74:a8:f5:33:5c:
        c7:32:de:32:16:dd:8c:81:4a:88:f7:af:31:e9:00:08:73:f1:
        a9:05:8d:f0:80:b2:e7:a7:a4:53:84:35:6f:53:cb:8c:82:1d:
        56:76:a3:4e:90:ce:d4:2c:f4:67:c2:5f:09:80:6b:aa:09:c9:
        98:14:7c:f5:81:66:33:90:38:8c:52:aa:1f:58:f3:52:71:b2:
        63:49:4c:3b:b9:25:b2:f0
-----BEGIN CERTIFICATE-----
MIIE7jCCAtagAwIBAgIBBTANBgkqhkiG9w0BAQsFADBhMQswCQYDVQQGEwJVUzEL
MAkGA1UECAwCQ0ExETAPBgNVBAcMCFNhbiBKb3NlMQ8wDQYDVQQKDAZBcGlnZWUx
FDASBgNVBAsMC0VuZ2luZWVyaW5nMQswCQYDVQQDDAJDQTAeFw0xNjA3MDgxNzA0
MDRaFw0xOTA0MDMxNzA0MDRaMFMxCzAJBgNVBAYTAlVTMQswCQYDVQQIDAJDQTEP
MA0GA1UECgwGQXBpZ2VlMRQwEgYDVQQLDAtFbmdpbmVlcmluZzEQMA4GA1UEAwwH
Y2x1c3RlcjCCASIwDQYJKoZIhvcNAQEBBQADggEPADCCAQoCggEBALQKoGVxcSo/
2/plmFSrf2tgcaLGszgLGs17Yaui2zyHtsm/52eA6hnhYLdUenoC0IMDSNHj92jT
oDiP1u4C3QGp5P5hqiTqdvFnZdE87olCi/+k4JxaVQpk73KQapEUtT9MniTUf7WK
9ul10zcvlX96STj4CmK7At1m0gDyzaoeI6rfQrtN+y87VNEy2B6PARsUYI+xbVcd
EwH7sshQV9eui0qJl+jpa3WhrCrt8996NJyWa380njqdAMxUdYljUlFM34/FX5Gd
jZPCxTL/1+3E1JajKyQNRoRBzvV1awg9x/vF7EBMeFoFTdzJJo/BnlUACyB9e8my
a9VXuPw9hnsCAwEAAaOBvjCBuzAJBgNVHRMEAjAAMBEGCWCGSAGG+EIBAQQEAwIF
oDAOBgNVHQ8BAf8EBAMCBeAwLAYJYIZIAYb4QgENBB8WHU9wZW5TU0wgR2VuZXJh
dGVkIENlcnRpZmljYXRlMB0GA1UdDgQWBBSQXxXcnB90KzmhjWIgBNR5Ljq3hTAf
BgNVHSMEGDAWgBQIJeLjPwZZWOs0wzU2HXGwozOTWDAdBgNVHSUEFjAUBggrBgEF
BQcDAgYIKwYBBQUHAwgwDQYJKoZIhvcNAQELBQADggIBALaPS/PnwGlgKcZK8JDJ
L3lLW+V+oUZ1wXVL4+BfkRJzRMool5VOZDfV/Cl4cR/K+udbNLGS9sA+CmUjpqTp
gHBYPHUxqm28Ci/iSgcPDcbbRnOZyHpChAP6AFugMvxYKzYvu7aQQNR/XmsbkcJH
vflgoxZluVaQ/8Lj+/EtCD95X3Z20S6G6KxJxLUbS8JTTw+NaDQVrzQDSG9Rj9C7
wR7eb4dpcNDWTJM+Y4JzugGA2YFZMv3JpolOe6iScvaYZyhMDAQErsaL4vk8RLNa
SkOyQ8eBe2+gThcEcOre3/P8LH0c6yLMJOHNwjI9qOtsaJHxrP5Sw6FNYN9CcdwA
ZFJS6GtltANGJa7MUYq7i6kJqZLK4LAWNC+389/NRz99Ox9wWaNM9ICZO8oW6EYV
+OdVI8pbdRox4j3eldK6Ymf26y2pVdg7W92j5UY+wt0ooPgR8U37ZoFS63cRURF5
Eme1aVQ7p7/vPLYPguU9WICzHjsUz3mHIjr0DAS0VodhkBhdDgDcpQ2jaVo6ealx
XIlMMF8aA3dVls+BxSl+55oQpLD/3bXOeayTqIZ0qPUzXMcy3jIW3YyBSoj3rzHp
AAhz8akFjfCAsuenpFOENW9Ty4yCHVZ2o06QztQs9GfCXwmAa6oJyZgUfPWBZjOQ
OIxSqh9Y81JxsmNJTDu5JbLw
-----END CERTIFICATE-----
